
3:     file format elf64-x86-64
3
architecture: i386:x86-64, flags 0x00000112:
EXEC_P, HAS_SYMS, D_PAGED
start address 0x0000000000400440

Program Header:
    PHDR off    0x0000000000000040 vaddr 0x0000000000400040 paddr 0x0000000000400040 align 2**3
         filesz 0x00000000000001f8 memsz 0x00000000000001f8 flags r-x
  INTERP off    0x0000000000000238 vaddr 0x0000000000400238 paddr 0x0000000000400238 align 2**0
         filesz 0x000000000000001c memsz 0x000000000000001c flags r--
    LOAD off    0x0000000000000000 vaddr 0x0000000000400000 paddr 0x0000000000400000 align 2**21
         filesz 0x0000000000000764 memsz 0x0000000000000764 flags r-x
    LOAD off    0x0000000000000e18 vaddr 0x0000000000600e18 paddr 0x0000000000600e18 align 2**21
         filesz 0x0000000000000208 memsz 0x0000000000000218 flags rw-
 DYNAMIC off    0x0000000000000e40 vaddr 0x0000000000600e40 paddr 0x0000000000600e40 align 2**3
         filesz 0x00000000000001a0 memsz 0x00000000000001a0 flags rw-
    NOTE off    0x0000000000000254 vaddr 0x0000000000400254 paddr 0x0000000000400254 align 2**2
         filesz 0x0000000000000044 memsz 0x0000000000000044 flags r--
EH_FRAME off    0x000000000000069c vaddr 0x000000000040069c paddr 0x000000000040069c align 2**2
         filesz 0x000000000000002c memsz 0x000000000000002c flags r--
   STACK off    0x0000000000000000 vaddr 0x0000000000000000 paddr 0x0000000000000000 align 2**3
         filesz 0x0000000000000000 memsz 0x0000000000000000 flags rw-
   RELRO off    0x0000000000000e18 vaddr 0x0000000000600e18 paddr 0x0000000000600e18 align 2**0
         filesz 0x00000000000001e8 memsz 0x00000000000001e8 flags r--

Dynamic Section:
  NEEDED               libc.so.6
  INIT                 0x00000000004003f0
  FINI                 0x0000000000400688
  HASH                 0x0000000000400298
  GNU_HASH             0x00000000004002c0
  STRTAB               0x0000000000400340
  SYMTAB               0x00000000004002e0
  STRSZ                0x000000000000003f
  SYMENT               0x0000000000000018
  DEBUG                0x0000000000000000
  PLTGOT               0x0000000000600fe8
  PLTRELSZ             0x0000000000000030
  PLTREL               0x0000000000000007
  JMPREL               0x00000000004003c0
  RELA                 0x00000000004003a8
  RELASZ               0x0000000000000018
  RELAENT              0x0000000000000018
  VERNEED              0x0000000000400388
  VERNEEDNUM           0x0000000000000001
  VERSYM               0x0000000000400380

Version References:
  required from libc.so.6:
    0x09691a75 0x00 02 GLIBC_2.2.5

Sections:
Idx Name          Size      VMA               LMA               File off  Algn
  0 .interp       0000001c  0000000000400238  0000000000400238  00000238  2**0
                  CONTENTS, ALLOC, LOAD, READONLY, DATA
  1 .note.ABI-tag 00000020  0000000000400254  0000000000400254  00000254  2**2
                  CONTENTS, ALLOC, LOAD, READONLY, DATA
  2 .note.gnu.build-id 00000024  0000000000400274  0000000000400274  00000274  2**2
                  CONTENTS, ALLOC, LOAD, READONLY, DATA
  3 .hash         00000024  0000000000400298  0000000000400298  00000298  2**3
                  CONTENTS, ALLOC, LOAD, READONLY, DATA
  4 .gnu.hash     0000001c  00000000004002c0  00000000004002c0  000002c0  2**3
                  CONTENTS, ALLOC, LOAD, READONLY, DATA
  5 .dynsym       00000060  00000000004002e0  00000000004002e0  000002e0  2**3
                  CONTENTS, ALLOC, LOAD, READONLY, DATA
  6 .dynstr       0000003f  0000000000400340  0000000000400340  00000340  2**0
                  CONTENTS, ALLOC, LOAD, READONLY, DATA
  7 .gnu.version  00000008  0000000000400380  0000000000400380  00000380  2**1
                  CONTENTS, ALLOC, LOAD, READONLY, DATA
  8 .gnu.version_r 00000020  0000000000400388  0000000000400388  00000388  2**3
                  CONTENTS, ALLOC, LOAD, READONLY, DATA
  9 .rela.dyn     00000018  00000000004003a8  00000000004003a8  000003a8  2**3
                  CONTENTS, ALLOC, LOAD, READONLY, DATA
 10 .rela.plt     00000030  00000000004003c0  00000000004003c0  000003c0  2**3
                  CONTENTS, ALLOC, LOAD, READONLY, DATA
 11 .init         00000018  00000000004003f0  00000000004003f0  000003f0  2**2
                  CONTENTS, ALLOC, LOAD, READONLY, CODE
 12 .plt          00000030  0000000000400408  0000000000400408  00000408  2**2
                  CONTENTS, ALLOC, LOAD, READONLY, CODE
 13 .text         00000248  0000000000400440  0000000000400440  00000440  2**4
                  CONTENTS, ALLOC, LOAD, READONLY, CODE
 14 .fini         0000000e  0000000000400688  0000000000400688  00000688  2**2
                  CONTENTS, ALLOC, LOAD, READONLY, CODE
 15 .rodata       00000004  0000000000400698  0000000000400698  00000698  2**2
                  CONTENTS, ALLOC, LOAD, READONLY, DATA
 16 .eh_frame_hdr 0000002c  000000000040069c  000000000040069c  0000069c  2**2
                  CONTENTS, ALLOC, LOAD, READONLY, DATA
 17 .eh_frame     0000009c  00000000004006c8  00000000004006c8  000006c8  2**3
                  CONTENTS, ALLOC, LOAD, READONLY, DATA
 18 .ctors        00000010  0000000000600e18  0000000000600e18  00000e18  2**3
                  CONTENTS, ALLOC, LOAD, DATA
 19 .dtors        00000010  0000000000600e28  0000000000600e28  00000e28  2**3
                  CONTENTS, ALLOC, LOAD, DATA
 20 .jcr          00000008  0000000000600e38  0000000000600e38  00000e38  2**3
                  CONTENTS, ALLOC, LOAD, DATA
 21 .dynamic      000001a0  0000000000600e40  0000000000600e40  00000e40  2**3
                  CONTENTS, ALLOC, LOAD, DATA
 22 .got          00000008  0000000000600fe0  0000000000600fe0  00000fe0  2**3
                  CONTENTS, ALLOC, LOAD, DATA
 23 .got.plt      00000028  0000000000600fe8  0000000000600fe8  00000fe8  2**3
                  CONTENTS, ALLOC, LOAD, DATA
 24 .data         00000010  0000000000601010  0000000000601010  00001010  2**3
                  CONTENTS, ALLOC, LOAD, DATA
 25 .bss          00000010  0000000000601020  0000000000601020  00001020  2**3
                  ALLOC
 26 .comment      00000023  0000000000000000  0000000000000000  00001020  2**0
                  CONTENTS, READONLY
SYMBOL TABLE:
0000000000400238 l    d  .interp	0000000000000000              .interp
0000000000400254 l    d  .note.ABI-tag	0000000000000000              .note.ABI-tag
0000000000400274 l    d  .note.gnu.build-id	0000000000000000              .note.gnu.build-id
0000000000400298 l    d  .hash	0000000000000000              .hash
00000000004002c0 l    d  .gnu.hash	0000000000000000              .gnu.hash
00000000004002e0 l    d  .dynsym	0000000000000000              .dynsym
0000000000400340 l    d  .dynstr	0000000000000000              .dynstr
0000000000400380 l    d  .gnu.version	0000000000000000              .gnu.version
0000000000400388 l    d  .gnu.version_r	0000000000000000              .gnu.version_r
00000000004003a8 l    d  .rela.dyn	0000000000000000              .rela.dyn
00000000004003c0 l    d  .rela.plt	0000000000000000              .rela.plt
00000000004003f0 l    d  .init	0000000000000000              .init
0000000000400408 l    d  .plt	0000000000000000              .plt
0000000000400440 l    d  .text	0000000000000000              .text
0000000000400688 l    d  .fini	0000000000000000              .fini
0000000000400698 l    d  .rodata	0000000000000000              .rodata
000000000040069c l    d  .eh_frame_hdr	0000000000000000              .eh_frame_hdr
00000000004006c8 l    d  .eh_frame	0000000000000000              .eh_frame
0000000000600e18 l    d  .ctors	0000000000000000              .ctors
0000000000600e28 l    d  .dtors	0000000000000000              .dtors
0000000000600e38 l    d  .jcr	0000000000000000              .jcr
0000000000600e40 l    d  .dynamic	0000000000000000              .dynamic
0000000000600fe0 l    d  .got	0000000000000000              .got
0000000000600fe8 l    d  .got.plt	0000000000000000              .got.plt
0000000000601010 l    d  .data	0000000000000000              .data
0000000000601020 l    d  .bss	0000000000000000              .bss
0000000000000000 l    d  .comment	0000000000000000              .comment
000000000040046c l     F .text	0000000000000000              call_gmon_start
0000000000000000 l    df *ABS*	0000000000000000              crtstuff.c
0000000000600e18 l     O .ctors	0000000000000000              __CTOR_LIST__
0000000000600e28 l     O .dtors	0000000000000000              __DTOR_LIST__
0000000000600e38 l     O .jcr	0000000000000000              __JCR_LIST__
0000000000400490 l     F .text	0000000000000000              __do_global_dtors_aux
0000000000601020 l     O .bss	0000000000000001              completed.7382
0000000000601028 l     O .bss	0000000000000008              dtor_idx.7384
0000000000400500 l     F .text	0000000000000000              frame_dummy
0000000000000000 l    df *ABS*	0000000000000000              crtstuff.c
0000000000600e20 l     O .ctors	0000000000000000              __CTOR_END__
0000000000400760 l     O .eh_frame	0000000000000000              __FRAME_END__
0000000000600e38 l     O .jcr	0000000000000000              __JCR_END__
0000000000400650 l     F .text	0000000000000000              __do_global_ctors_aux
0000000000000000 l    df *ABS*	0000000000000000              memcpy3.c
0000000000600fe8 l     O .got.plt	0000000000000000              .hidden _GLOBAL_OFFSET_TABLE_
0000000000600e14 l       .ctors	0000000000000000              .hidden __init_array_end
0000000000600e14 l       .ctors	0000000000000000              .hidden __init_array_start
0000000000600e40 l     O .dynamic	0000000000000000              .hidden _DYNAMIC
0000000000601010  w      .data	0000000000000000              data_start
00000000004005b0 g     F .text	0000000000000002              __libc_csu_fini
0000000000400440 g     F .text	0000000000000000              _start
0000000000000000  w      *UND*	0000000000000000              __gmon_start__
0000000000000000  w      *UND*	0000000000000000              _Jv_RegisterClasses
0000000000400688 g     F .fini	0000000000000000              _fini
0000000000000000       F *UND*	0000000000000000              malloc@@GLIBC_2.2.5
0000000000000000       F *UND*	0000000000000000              __libc_start_main@@GLIBC_2.2.5
0000000000400698 g     O .rodata	0000000000000004              _IO_stdin_used
0000000000601010 g       .data	0000000000000000              __data_start
0000000000601018 g     O .data	0000000000000000              .hidden __dso_handle
0000000000600e30 g     O .dtors	0000000000000000              .hidden __DTOR_END__
00000000004005c0 g     F .text	0000000000000089              __libc_csu_init
0000000000400524 g     F .text	0000000000000025              memcpy1
0000000000601020 g       *ABS*	0000000000000000              __bss_start
0000000000601030 g       *ABS*	0000000000000000              _end
0000000000601020 g       *ABS*	0000000000000000              _edata
0000000000400549 g     F .text	0000000000000061              main
00000000004003f0 g     F .init	0000000000000000              _init



Disassembly of section .init:

00000000004003f0 <_init>:
  4003f0:	48 83 ec 08          	sub    $0x8,%rsp
  4003f4:	e8 73 00 00 00       	callq  40046c <call_gmon_start>
  4003f9:	e8 02 01 00 00       	callq  400500 <frame_dummy>
  4003fe:	e8 4d 02 00 00       	callq  400650 <__do_global_ctors_aux>
  400403:	48 83 c4 08          	add    $0x8,%rsp
  400407:	c3                   	retq   

Disassembly of section .plt:

0000000000400408 <malloc@plt-0x10>:
  400408:	ff 35 e2 0b 20 00    	pushq  0x200be2(%rip)        # 600ff0 <_GLOBAL_OFFSET_TABLE_+0x8>
  40040e:	ff 25 e4 0b 20 00    	jmpq   *0x200be4(%rip)        # 600ff8 <_GLOBAL_OFFSET_TABLE_+0x10>
  400414:	0f 1f 40 00          	nopl   0x0(%rax)

0000000000400418 <malloc@plt>:
  400418:	ff 25 e2 0b 20 00    	jmpq   *0x200be2(%rip)        # 601000 <_GLOBAL_OFFSET_TABLE_+0x18>
  40041e:	68 00 00 00 00       	pushq  $0x0
  400423:	e9 e0 ff ff ff       	jmpq   400408 <_init+0x18>

0000000000400428 <__libc_start_main@plt>:
  400428:	ff 25 da 0b 20 00    	jmpq   *0x200bda(%rip)        # 601008 <_GLOBAL_OFFSET_TABLE_+0x20>
  40042e:	68 01 00 00 00       	pushq  $0x1
  400433:	e9 d0 ff ff ff       	jmpq   400408 <_init+0x18>

Disassembly of section .text:

0000000000400440 <_start>:
  400440:	31 ed                	xor    %ebp,%ebp
  400442:	49 89 d1             	mov    %rdx,%r9
  400445:	5e                   	pop    %rsi
  400446:	48 89 e2             	mov    %rsp,%rdx
  400449:	48 83 e4 f0          	and    $0xfffffffffffffff0,%rsp
  40044d:	50                   	push   %rax
  40044e:	54                   	push   %rsp
  40044f:	49 c7 c0 b0 05 40 00 	mov    $0x4005b0,%r8
  400456:	48 c7 c1 c0 05 40 00 	mov    $0x4005c0,%rcx
  40045d:	48 c7 c7 49 05 40 00 	mov    $0x400549,%rdi
  400464:	e8 bf ff ff ff       	callq  400428 <__libc_start_main@plt>
  400469:	f4                   	hlt    
  40046a:	90                   	nop
  40046b:	90                   	nop

000000000040046c <call_gmon_start>:
  40046c:	48 83 ec 08          	sub    $0x8,%rsp
  400470:	48 8b 05 69 0b 20 00 	mov    0x200b69(%rip),%rax        # 600fe0 <_DYNAMIC+0x1a0>
  400477:	48 85 c0             	test   %rax,%rax
  40047a:	74 02                	je     40047e <call_gmon_start+0x12>
  40047c:	ff d0                	callq  *%rax
  40047e:	48 83 c4 08          	add    $0x8,%rsp
  400482:	c3                   	retq   
  400483:	90                   	nop
  400484:	90                   	nop
  400485:	90                   	nop
  400486:	90                   	nop
  400487:	90                   	nop
  400488:	90                   	nop
  400489:	90                   	nop
  40048a:	90                   	nop
  40048b:	90                   	nop
  40048c:	90                   	nop
  40048d:	90                   	nop
  40048e:	90                   	nop
  40048f:	90                   	nop

0000000000400490 <__do_global_dtors_aux>:
  400490:	55                   	push   %rbp
  400491:	48 89 e5             	mov    %rsp,%rbp
  400494:	53                   	push   %rbx
  400495:	48 83 ec 08          	sub    $0x8,%rsp
  400499:	80 3d 80 0b 20 00 00 	cmpb   $0x0,0x200b80(%rip)        # 601020 <__bss_start>
  4004a0:	75 4b                	jne    4004ed <__do_global_dtors_aux+0x5d>
  4004a2:	bb 30 0e 60 00       	mov    $0x600e30,%ebx
  4004a7:	48 8b 05 7a 0b 20 00 	mov    0x200b7a(%rip),%rax        # 601028 <dtor_idx.7384>
  4004ae:	48 81 eb 28 0e 60 00 	sub    $0x600e28,%rbx
  4004b5:	48 c1 fb 03          	sar    $0x3,%rbx
  4004b9:	48 83 eb 01          	sub    $0x1,%rbx
  4004bd:	48 39 d8             	cmp    %rbx,%rax
  4004c0:	73 24                	jae    4004e6 <__do_global_dtors_aux+0x56>
  4004c2:	66 0f 1f 44 00 00    	nopw   0x0(%rax,%rax,1)
  4004c8:	48 83 c0 01          	add    $0x1,%rax
  4004cc:	48 89 05 55 0b 20 00 	mov    %rax,0x200b55(%rip)        # 601028 <dtor_idx.7384>
  4004d3:	ff 14 c5 28 0e 60 00 	callq  *0x600e28(,%rax,8)
  4004da:	48 8b 05 47 0b 20 00 	mov    0x200b47(%rip),%rax        # 601028 <dtor_idx.7384>
  4004e1:	48 39 d8             	cmp    %rbx,%rax
  4004e4:	72 e2                	jb     4004c8 <__do_global_dtors_aux+0x38>
  4004e6:	c6 05 33 0b 20 00 01 	movb   $0x1,0x200b33(%rip)        # 601020 <__bss_start>
  4004ed:	48 83 c4 08          	add    $0x8,%rsp
  4004f1:	5b                   	pop    %rbx
  4004f2:	c9                   	leaveq 
  4004f3:	c3                   	retq   
  4004f4:	66 66 66 2e 0f 1f 84 	nopw   %cs:0x0(%rax,%rax,1)
  4004fb:	00 00 00 00 00 

0000000000400500 <frame_dummy>:
  400500:	55                   	push   %rbp
  400501:	48 83 3d 2f 09 20 00 	cmpq   $0x0,0x20092f(%rip)        # 600e38 <__JCR_END__>
  400508:	00 
  400509:	48 89 e5             	mov    %rsp,%rbp
  40050c:	74 12                	je     400520 <frame_dummy+0x20>
  40050e:	b8 00 00 00 00       	mov    $0x0,%eax
  400513:	48 85 c0             	test   %rax,%rax
  400516:	74 08                	je     400520 <frame_dummy+0x20>
  400518:	bf 38 0e 60 00       	mov    $0x600e38,%edi
  40051d:	c9                   	leaveq 
  40051e:	ff e0                	jmpq   *%rax
  400520:	c9                   	leaveq 
  400521:	c3                   	retq   
  400522:	90                   	nop
  400523:	90                   	nop

0000000000400524 <memcpy1>:
  400524:	55                   	push   %rbp
  400525:	48 89 e5             	mov    %rsp,%rbp
  400528:	53                   	push   %rbx
  400529:	48 89 fb             	mov    %rdi,%rbx
  40052c:	48 89 f1             	mov    %rsi,%rcx
  40052f:	89 d0                	mov    %edx,%eax
  400531:	0f b7 11             	movzwl (%rcx),%edx
  400534:	66 89 13             	mov    %dx,(%rbx)
  400537:	48 83 c3 02          	add    $0x2,%rbx
  40053b:	48 83 c1 02          	add    $0x2,%rcx
  40053f:	83 e8 01             	sub    $0x1,%eax
  400542:	85 c0                	test   %eax,%eax
  400544:	7f eb                	jg     400531 <memcpy1+0xd>
  400546:	5b                   	pop    %rbx
  400547:	c9                   	leaveq 
  400548:	c3                   	retq   

0000000000400549 <main>:
  400549:	55                   	push   %rbp
  40054a:	48 89 e5             	mov    %rsp,%rbp
  40054d:	48 83 ec 20          	sub    $0x20,%rsp
  400551:	bf 00 00 10 00       	mov    $0x100000,%edi
  400556:	e8 bd fe ff ff       	callq  400418 <malloc@plt>
  40055b:	48 89 45 f8          	mov    %rax,-0x8(%rbp)
  40055f:	bf 00 00 10 00       	mov    $0x100000,%edi
  400564:	e8 af fe ff ff       	callq  400418 <malloc@plt>
  400569:	48 89 45 f0          	mov    %rax,-0x10(%rbp)
  40056d:	48 c7 45 e8 00 00 00 	movq   $0x0,-0x18(%rbp)
  400574:	00 
  400575:	eb 22                	jmp    400599 <main+0x50>
  400577:	48 8b 4d f8          	mov    -0x8(%rbp),%rcx
  40057b:	48 8b 45 f0          	mov    -0x10(%rbp),%rax
  40057f:	ba 00 00 10 00       	mov    $0x100000,%edx
  400584:	48 89 ce             	mov    %rcx,%rsi
  400587:	48 89 c7             	mov    %rax,%rdi
  40058a:	b8 00 00 00 00       	mov    $0x0,%eax
  40058f:	e8 90 ff ff ff       	callq  400524 <memcpy1>
  400594:	48 83 45 e8 01       	addq   $0x1,-0x18(%rbp)
  400599:	48 81 7d e8 fe 00 00 	cmpq   $0xfe,-0x18(%rbp)
  4005a0:	00 
  4005a1:	7e d4                	jle    400577 <main+0x2e>
  4005a3:	b8 00 00 00 00       	mov    $0x0,%eax
  4005a8:	c9                   	leaveq 
  4005a9:	c3                   	retq   
  4005aa:	90                   	nop
  4005ab:	90                   	nop
  4005ac:	90                   	nop
  4005ad:	90                   	nop
  4005ae:	90                   	nop
  4005af:	90                   	nop

00000000004005b0 <__libc_csu_fini>:
  4005b0:	f3 c3                	repz retq 
  4005b2:	66 66 66 66 66 2e 0f 	nopw   %cs:0x0(%rax,%rax,1)
  4005b9:	1f 84 00 00 00 00 00 

00000000004005c0 <__libc_csu_init>:
  4005c0:	48 89 6c 24 d8       	mov    %rbp,-0x28(%rsp)
  4005c5:	4c 89 64 24 e0       	mov    %r12,-0x20(%rsp)
  4005ca:	48 8d 2d 43 08 20 00 	lea    0x200843(%rip),%rbp        # 600e14 <__init_array_end>
  4005d1:	4c 8d 25 3c 08 20 00 	lea    0x20083c(%rip),%r12        # 600e14 <__init_array_end>
  4005d8:	4c 89 6c 24 e8       	mov    %r13,-0x18(%rsp)
  4005dd:	4c 89 74 24 f0       	mov    %r14,-0x10(%rsp)
  4005e2:	4c 89 7c 24 f8       	mov    %r15,-0x8(%rsp)
  4005e7:	48 89 5c 24 d0       	mov    %rbx,-0x30(%rsp)
  4005ec:	48 83 ec 38          	sub    $0x38,%rsp
  4005f0:	4c 29 e5             	sub    %r12,%rbp
  4005f3:	41 89 fd             	mov    %edi,%r13d
  4005f6:	49 89 f6             	mov    %rsi,%r14
  4005f9:	48 c1 fd 03          	sar    $0x3,%rbp
  4005fd:	49 89 d7             	mov    %rdx,%r15
  400600:	e8 eb fd ff ff       	callq  4003f0 <_init>
  400605:	48 85 ed             	test   %rbp,%rbp
  400608:	74 1c                	je     400626 <__libc_csu_init+0x66>
  40060a:	31 db                	xor    %ebx,%ebx
  40060c:	0f 1f 40 00          	nopl   0x0(%rax)
  400610:	4c 89 fa             	mov    %r15,%rdx
  400613:	4c 89 f6             	mov    %r14,%rsi
  400616:	44 89 ef             	mov    %r13d,%edi
  400619:	41 ff 14 dc          	callq  *(%r12,%rbx,8)
  40061d:	48 83 c3 01          	add    $0x1,%rbx
  400621:	48 39 eb             	cmp    %rbp,%rbx
  400624:	72 ea                	jb     400610 <__libc_csu_init+0x50>
  400626:	48 8b 5c 24 08       	mov    0x8(%rsp),%rbx
  40062b:	48 8b 6c 24 10       	mov    0x10(%rsp),%rbp
  400630:	4c 8b 64 24 18       	mov    0x18(%rsp),%r12
  400635:	4c 8b 6c 24 20       	mov    0x20(%rsp),%r13
  40063a:	4c 8b 74 24 28       	mov    0x28(%rsp),%r14
  40063f:	4c 8b 7c 24 30       	mov    0x30(%rsp),%r15
  400644:	48 83 c4 38          	add    $0x38,%rsp
  400648:	c3                   	retq   
  400649:	90                   	nop
  40064a:	90                   	nop
  40064b:	90                   	nop
  40064c:	90                   	nop
  40064d:	90                   	nop
  40064e:	90                   	nop
  40064f:	90                   	nop

0000000000400650 <__do_global_ctors_aux>:
  400650:	55                   	push   %rbp
  400651:	48 89 e5             	mov    %rsp,%rbp
  400654:	53                   	push   %rbx
  400655:	48 83 ec 08          	sub    $0x8,%rsp
  400659:	48 8b 05 b8 07 20 00 	mov    0x2007b8(%rip),%rax        # 600e18 <__CTOR_LIST__>
  400660:	48 83 f8 ff          	cmp    $0xffffffffffffffff,%rax
  400664:	74 19                	je     40067f <__do_global_ctors_aux+0x2f>
  400666:	bb 18 0e 60 00       	mov    $0x600e18,%ebx
  40066b:	0f 1f 44 00 00       	nopl   0x0(%rax,%rax,1)
  400670:	48 83 eb 08          	sub    $0x8,%rbx
  400674:	ff d0                	callq  *%rax
  400676:	48 8b 03             	mov    (%rbx),%rax
  400679:	48 83 f8 ff          	cmp    $0xffffffffffffffff,%rax
  40067d:	75 f1                	jne    400670 <__do_global_ctors_aux+0x20>
  40067f:	48 83 c4 08          	add    $0x8,%rsp
  400683:	5b                   	pop    %rbx
  400684:	c9                   	leaveq 
  400685:	c3                   	retq   
  400686:	90                   	nop
  400687:	90                   	nop

Disassembly of section .fini:

0000000000400688 <_fini>:
  400688:	48 83 ec 08          	sub    $0x8,%rsp
  40068c:	e8 ff fd ff ff       	callq  400490 <__do_global_dtors_aux>
  400691:	48 83 c4 08          	add    $0x8,%rsp
  400695:	c3                   	retq   
